target datalayout = "e-m:e-p270:32:32-p271:32:32-p272:64:64-i64:64-i128:128-f80:128-n8:16:32:64-S128"
target triple = "x86_64-pc-linux-gnu"

%struct.VuDev = type { i32, i32, ptr, ptr, %struct.VuDevInflightInfo, i32, %union.pthread_mutex_t, i32, i64, ptr, i64, i64, i8, i16, ptr, ptr, ptr, ptr, ptr, i32, i8 }
%struct.VuDevInflightInfo = type { i32, ptr, i64 }
%union.pthread_mutex_t = type { %struct.__pthread_mutex_s }
%struct.__pthread_mutex_s = type { i32, i32, i32, i32, i32, i16, i16, %struct.__pthread_internal_list }
%struct.__pthread_internal_list = type { ptr, ptr }
%struct.VuVirtq = type { %struct.VuRing, ptr, ptr, i16, i64, i16, i16, i16, i16, i8, i8, i32, ptr, i32, i32, i32, i32, i8, %struct.vhost_vring_addr }
%struct.VuRing = type { i32, ptr, ptr, ptr, i64, i32 }
%struct.vhost_vring_addr = type { i32, i32, i64, i64, i64, i64 }
%struct.VhostUserMsg = type <{ i32, i32, i32, %union.anon, [8 x i32], i32, ptr }>
%union.anon = type { %struct.VhostUserMemory, [8 x i8] }
%struct.VhostUserMemory = type { i32, i32, [8 x %struct.VhostUserMemoryRegion] }
%struct.VhostUserMemoryRegion = type { i64, i64, i64, i64 }

; Function Attrs: nounwind uwtable
define internal zeroext i1 @vu_set_vring_err_exec(ptr noundef %0, ptr noundef %1) #0 {
  %3 = alloca i1, align 1
  %4 = alloca ptr, align 8
  %5 = alloca ptr, align 8
  %6 = alloca i32, align 4
  %7 = alloca i8, align 1
  %8 = alloca i32, align 4
  store ptr %0, ptr %4, align 8
  store ptr %1, ptr %5, align 8
  call void @llvm.lifetime.start.p0(i64 4, ptr %6) #13
  %9 = load ptr, ptr %5, align 8
  %10 = getelementptr inbounds nuw %struct.VhostUserMsg, ptr %9, i32 0, i32 3
  %11 = load i64, ptr %10, align 1
  %12 = and i64 %11, 255
  %13 = trunc i64 %12 to i32
  store i32 %13, ptr %6, align 4
  call void @llvm.lifetime.start.p0(i64 1, ptr %7) #13
  %14 = load ptr, ptr %5, align 8
  %15 = getelementptr inbounds nuw %struct.VhostUserMsg, ptr %14, i32 0, i32 3
  %16 = load i64, ptr %15, align 1
  %17 = and i64 %16, 256
  %18 = icmp ne i64 %17, 0
  %19 = zext i1 %18 to i8
  store i8 %19, ptr %7, align 1
  br label %20

20:                                               ; preds = %2
  br label %21

21:                                               ; preds = %20
  br label %22

22:                                               ; preds = %21
  %23 = load ptr, ptr %4, align 8
  %24 = load ptr, ptr %5, align 8
  %25 = call zeroext i1 @vu_check_queue_msg_file(ptr noundef %23, ptr noundef %24)
  br i1 %25, label %27, label %26

26:                                               ; preds = %22
  store i1 false, ptr %3, align 1
  store i32 1, ptr %8, align 4
  br label %72

27:                                               ; preds = %22
  %28 = load ptr, ptr %4, align 8
  %29 = getelementptr inbounds nuw %struct.VuDev, ptr %28, i32 0, i32 3
  %30 = load ptr, ptr %29, align 8
  %31 = load i32, ptr %6, align 4
  %32 = sext i32 %31 to i64
  %33 = getelementptr inbounds %struct.VuVirtq, ptr %30, i64 %32
  %34 = getelementptr inbounds nuw %struct.VuVirtq, ptr %33, i32 0, i32 15
  %35 = load i32, ptr %34, align 8
  %36 = icmp ne i32 %35, -1
  br i1 %36, label %37, label %54

37:                                               ; preds = %27
  %38 = load ptr, ptr %4, align 8
  %39 = getelementptr inbounds nuw %struct.VuDev, ptr %38, i32 0, i32 3
  %40 = load ptr, ptr %39, align 8
  %41 = load i32, ptr %6, align 4
  %42 = sext i32 %41 to i64
  %43 = getelementptr inbounds %struct.VuVirtq, ptr %40, i64 %42
  %44 = getelementptr inbounds nuw %struct.VuVirtq, ptr %43, i32 0, i32 15
  %45 = load i32, ptr %44, align 8
  %46 = call i32 @close(i32 noundef %45)
  %47 = load ptr, ptr %4, align 8
  %48 = getelementptr inbounds nuw %struct.VuDev, ptr %47, i32 0, i32 3
  %49 = load ptr, ptr %48, align 8
  %50 = load i32, ptr %6, align 4
  %51 = sext i32 %50 to i64
  %52 = getelementptr inbounds %struct.VuVirtq, ptr %49, i64 %51
  %53 = getelementptr inbounds nuw %struct.VuVirtq, ptr %52, i32 0, i32 15
  store i32 -1, ptr %53, align 8
  br label %54

54:                                               ; preds = %37, %27
  %55 = load i8, ptr %7, align 1, !range !5, !noundef !6
  %56 = trunc i8 %55 to i1
  br i1 %56, label %57, label %58

57:                                               ; preds = %54
  br label %63

58:                                               ; preds = %54
  %59 = load ptr, ptr %5, align 8
  %60 = getelementptr inbounds nuw %struct.VhostUserMsg, ptr %59, i32 0, i32 4
  %61 = getelementptr inbounds [8 x i32], ptr %60, i64 0, i64 0
  %62 = load i32, ptr %61, align 1
  br label %63

63:                                               ; preds = %58, %57
  %64 = phi i32 [ -1, %57 ], [ %62, %58 ]
  %65 = load ptr, ptr %4, align 8
  %66 = getelementptr inbounds nuw %struct.VuDev, ptr %65, i32 0, i32 3
  %67 = load ptr, ptr %66, align 8
  %68 = load i32, ptr %6, align 4
  %69 = sext i32 %68 to i64
  %70 = getelementptr inbounds %struct.VuVirtq, ptr %67, i64 %69
  %71 = getelementptr inbounds nuw %struct.VuVirtq, ptr %70, i32 0, i32 15
  store i32 %64, ptr %71, align 8
  store i1 false, ptr %3, align 1
  store i32 1, ptr %8, align 4
  br label %72

72:                                               ; preds = %63, %26
  call void @llvm.lifetime.end.p0(i64 1, ptr %7) #13
  call void @llvm.lifetime.end.p0(i64 4, ptr %6) #13
  %73 = load i1, ptr %3, align 1
  ret i1 %73
}